Certificate:
    Data:
        Version: 3 (0x2)
        Serial Number: 2 (0x2)
    Signature Algorithm: sha256WithRSAEncryption
        Issuer: CN=10.111.1.201@1459456587
        Validity
            Not Before: Mar 31 20:36:28 2016 GMT
            Not After : Mar 29 20:36:28 2026 GMT
        Subject: CN=kubecfg
        Subject Public Key Info:
            Public Key Algorithm: rsaEncryption
                Public-Key: (2048 bit)
                Modulus:
                    00:d0:0c:a8:ce:2e:19:4d:3a:0a:23:58:46:18:8b:
                    11:a4:c6:8c:8a:26:c3:30:39:f9:79:48:76:15:91:
                    62:f3:d2:b3:8b:f0:ec:9b:8d:4a:9a:34:a7:c3:d7:
                    ec:33:15:65:e6:53:19:0e:fa:41:38:c2:bb:3e:be:
                    9f:7f:fd:11:27:88:5a:9d:49:09:bd:9d:41:49:99:
                    57:2d:96:18:dd:8f:7c:f4:18:3f:46:ec:71:87:6c:
                    57:3a:6f:7c:7e:5e:a6:ab:a1:39:2b:a2:56:44:9e:
                    7f:f6:b1:f3:c8:cf:7a:5d:4b:ed:1c:8f:e3:4c:db:
                    8f:75:33:b8:6d:54:d8:4c:35:5f:64:30:df:10:6b:
                    7e:e8:7c:c5:e4:de:a3:87:4e:c3:82:78:b2:af:ea:
                    c1:2d:e2:cf:c9:f0:93:00:43:9a:0d:a3:d9:13:fd:
                    8c:d0:76:5d:2b:97:be:1d:ab:37:58:5e:e0:f0:1d:
                    ee:aa:2c:4a:0c:0d:f5:c8:f9:a5:9d:e1:d8:11:1d:
                    2b:17:68:30:89:51:85:b2:2e:89:ad:8d:41:14:d5:
                    cc:3e:91:ab:05:32:cf:93:f7:99:1c:a5:e2:a4:ef:
                    68:89:90:44:d7:6a:81:8f:41:2d:18:95:6f:04:96:
                    41:8a:5b:32:91:01:fe:9a:18:0f:20:c9:4b:35:fa:
                    d8:9d
                Exponent: 65537 (0x10001)
        X509v3 extensions:
            X509v3 Basic Constraints: 
                CA:FALSE
            X509v3 Subject Key Identifier: 
                B7:04:51:AA:C5:E1:C0:C0:91:27:7E:C9:66:E5:CD:8E:F8:A0:EC:F0
            X509v3 Authority Key Identifier: 
                keyid:1C:71:1C:F2:82:21:1D:22:B1:FB:D2:EB:FE:E0:D4:82:A6:40:6C:67
                DirName:/CN=10.111.1.201@1459456587
                serial:8E:83:17:D2:ED:BD:D1:B4

            X509v3 Extended Key Usage: 
                TLS Web Client Authentication
            X509v3 Key Usage: 
                Digital Signature
    Signature Algorithm: sha256WithRSAEncryption
         15:9c:f3:25:71:2e:6a:93:a9:6e:6b:10:1e:85:b1:a2:4d:7c:
         7f:1d:48:79:af:12:e8:36:bc:6f:de:b2:84:e4:65:ec:86:24:
         ca:c5:3c:99:14:29:1b:b3:3f:c9:46:fd:9d:4f:f7:00:54:d6:
         92:81:53:82:1e:0a:f0:e1:a9:9c:81:19:19:3b:c5:fd:fc:80:
         8b:b9:15:c2:97:53:61:4c:11:c4:ac:d8:8e:60:8c:27:8f:ca:
         d4:ab:c8:40:89:ca:f3:a6:f9:0d:67:02:62:60:fe:61:4d:86:
         bb:88:1b:6f:df:8c:45:e5:57:60:7e:39:b9:03:bd:75:dd:b6:
         1a:8f:08:c6:ac:7f:57:25:07:64:ca:fe:aa:72:58:85:b4:08:
         6d:42:d1:5c:a9:12:cb:72:ca:03:da:28:e1:b7:e2:f9:e7:ed:
         7a:92:e1:0a:5c:31:cf:31:de:b1:08:54:90:ab:48:05:c5:22:
         0b:80:dd:68:39:07:72:9c:e4:08:34:46:c3:90:88:da:47:d4:
         45:51:6b:e2:7d:7e:a8:aa:d4:c7:bf:18:cc:0a:65:55:7d:33:
         39:08:08:c9:c5:02:92:ae:d7:b3:1d:0a:58:f6:ed:f5:c9:fa:
         54:f2:f5:7c:96:8d:34:20:dd:05:0f:32:08:fe:1d:b1:56:f5:
         d8:8a:49:96
-----BEGIN CERTIFICATE-----
MIIDUzCCAjugAwIBAgIBAjANBgkqhkiG9w0BAQsFADAiMSAwHgYDVQQDFBcxMC4x
MTEuMS4yMDFAMTQ1OTQ1NjU4NzAeFw0xNjAzMzEyMDM2MjhaFw0yNjAzMjkyMDM2
MjhaMBIxEDAOBgNVBAMTB2t1YmVjZmcwggEiMA0GCSqGSIb3DQEBAQUAA4IBDwAw
ggEKAoIBAQDQDKjOLhlNOgojWEYYixGkxoyKJsMwOfl5SHYVkWLz0rOL8OybjUqa
NKfD1+wzFWXmUxkO+kE4wrs+vp9//REniFqdSQm9nUFJmVctlhjdj3z0GD9G7HGH
bFc6b3x+XqaroTkrolZEnn/2sfPIz3pdS+0cj+NM2491M7htVNhMNV9kMN8Qa37o
fMXk3qOHTsOCeLKv6sEt4s/J8JMAQ5oNo9kT/YzQdl0rl74dqzdYXuDwHe6qLEoM
DfXI+aWd4dgRHSsXaDCJUYWyLomtjUEU1cw+kasFMs+T95kcpeKk72iJkETXaoGP
QS0YlW8ElkGKWzKRAf6aGA8gyUs1+tidAgMBAAGjgaMwgaAwCQYDVR0TBAIwADAd
BgNVHQ4EFgQUtwRRqsXhwMCRJ37JZuXNjvig7PAwUgYDVR0jBEswSYAUHHEc8oIh
HSKx+9Lr/uDUgqZAbGehJqQkMCIxIDAeBgNVBAMUFzEwLjExMS4xLjIwMUAxNDU5
NDU2NTg3ggkAjoMX0u290bQwEwYDVR0lBAwwCgYIKwYBBQUHAwIwCwYDVR0PBAQD
AgeAMA0GCSqGSIb3DQEBCwUAA4IBAQAVnPMlcS5qk6luaxAehbGiTXx/HUh5rxLo
Nrxv3rKE5GXshiTKxTyZFCkbsz/JRv2dT/cAVNaSgVOCHgrw4amcgRkZO8X9/ICL
uRXCl1NhTBHErNiOYIwnj8rUq8hAicrzpvkNZwJiYP5hTYa7iBtv34xF5Vdgfjm5
A7113bYajwjGrH9XJQdkyv6qcliFtAhtQtFcqRLLcsoD2ijht+L55+16kuEKXDHP
Md6xCFSQq0gFxSILgN1oOQdynOQINEbDkIjaR9RFUWvifX6oqtTHvxjMCmVVfTM5
CAjJxQKSrtezHQpY9u31yfpU8vV8lo00IN0FDzII/h2xVvXYikmW
-----END CERTIFICATE-----
